; Function Attrs: mustprogress uwtable
define hidden noundef i32 @_ZN4cvc58internal13preprocessing4util14countReachableENS0_12NodeTemplateILb0EEENS0_4kind6Kind_tE(ptr noundef readonly captures(none) %0, i32 noundef %1) local_unnamed_addr #3 personality ptr @__gxx_personality_v0 {
  %3 = alloca %"class.std::unordered_set.592", align 8
  %4 = alloca i32, align 4
  %5 = alloca %"class.cvc5::internal::NodeTemplate", align 8
  call void @llvm.lifetime.start.p0(i64 56, ptr nonnull %3) #28
  %6 = getelementptr inbounds nuw i8, ptr %3, i64 48
  store ptr %6, ptr %3, align 8, !tbaa !828
  %7 = getelementptr inbounds nuw i8, ptr %3, i64 8
  store i64 1, ptr %7, align 8, !tbaa !827
  %8 = getelementptr inbounds nuw i8, ptr %3, i64 16
  %9 = getelementptr inbounds nuw i8, ptr %3, i64 32
  call void @llvm.memset.p0.i64(ptr noundef nonnull align 8 dereferenceable(16) %8, i8 0, i64 16, i1 false)
  store float 1.000000e+00, ptr %9, align 8, !tbaa !17
  %10 = getelementptr inbounds nuw i8, ptr %3, i64 40
  call void @llvm.memset.p0.i64(ptr noundef nonnull align 8 dereferenceable(16) %10, i8 0, i64 16, i1 false)
  call void @llvm.lifetime.start.p0(i64 4, ptr nonnull %4) #28
  store i32 0, ptr %4, align 4, !tbaa !365
  %11 = load ptr, ptr %0, align 8, !tbaa !36
  store ptr %11, ptr %5, align 8, !tbaa !69
  %12 = load i64, ptr %11, align 8
  %13 = lshr i64 %12, 40
  %14 = trunc nuw nsw i64 %13 to i32
  %15 = and i32 %14, 1048575
  %16 = icmp samesign ult i32 %15, 1048574
  br i1 %16, label %17, label %22, !prof !70

17:                                               ; preds = %2
  %18 = add i64 %12, 1099511627776
  %19 = and i64 %18, 1152920405095219200
  %20 = and i64 %12, -1152920405095219201
  %21 = or disjoint i64 %19, %20
  store i64 %21, ptr %11, align 8
  br label %_ZN4cvc58internal12NodeTemplateILb1EEC2ERKNS1_ILb0EEE.exit

22:                                               ; preds = %2
  %23 = icmp eq i32 %15, 1048574
  br i1 %23, label %24, label %_ZN4cvc58internal12NodeTemplateILb1EEC2ERKNS1_ILb0EEE.exit, !prof !71

24:                                               ; preds = %22
  %25 = or i64 %12, 1152920405095219200
  store i64 %25, ptr %11, align 8
  invoke void @_ZN4cvc58internal4expr9NodeValue20markRefCountMaxedOutEv(ptr noundef nonnull align 8 dereferenceable(24) %11)
          to label %_ZN4cvc58internal12NodeTemplateILb1EEC2ERKNS1_ILb0EEE.exit unwind label %65

_ZN4cvc58internal12NodeTemplateILb1EEC2ERKNS1_ILb0EEE.exit: ; preds = %22, %17, %24
  invoke void @_ZN4cvc58internal13preprocessing4util15countReachable_ENS0_12NodeTemplateILb1EEENS0_4kind6Kind_tERSt13unordered_setIS4_St4hashIS4_ESt8equal_toIS4_ESaIS4_EERj(ptr noundef nonnull %5, i32 noundef %1, ptr noundef nonnull align 8 dereferenceable(56) %3, ptr noundef nonnull align 4 dereferenceable(4) %4)
          to label %26 unwind label %67

26:                                               ; preds = %_ZN4cvc58internal12NodeTemplateILb1EEC2ERKNS1_ILb0EEE.exit
  %27 = load ptr, ptr %5, align 8, !tbaa !69
  %28 = load i64, ptr %27, align 8
  %29 = and i64 %28, 1152920405095219200
  %.not.i.i = icmp eq i64 %29, 1152920405095219200
  br i1 %.not.i.i, label %_ZN4cvc58internal12NodeTemplateILb1EED2Ev.exit, label %30, !prof !71

30:                                               ; preds = %26
  %31 = add i64 %28, 1152920405095219200
  %32 = and i64 %31, 1152920405095219200
  %33 = and i64 %28, -1152920405095219201
  %34 = or disjoint i64 %32, %33
  store i64 %34, ptr %27, align 8
  %35 = icmp eq i64 %32, 0
  br i1 %35, label %36, label %_ZN4cvc58internal12NodeTemplateILb1EED2Ev.exit, !prof !71

36:                                               ; preds = %30
  invoke void @_ZN4cvc58internal4expr9NodeValue15markForDeletionEv(ptr noundef nonnull align 8 dereferenceable(24) %27)
          to label %_ZN4cvc58internal12NodeTemplateILb1EED2Ev.exit unwind label %37

37:                                               ; preds = %36
  %38 = landingpad { ptr, i32 }
          catch ptr null
  %39 = extractvalue { ptr, i32 } %38, 0
  call void @__clang_call_terminate(ptr %39) #30
  unreachable

_ZN4cvc58internal12NodeTemplateILb1EED2Ev.exit:   ; preds = %26, %30, %36
  %40 = load i32, ptr %4, align 4, !tbaa !365
  call void @llvm.lifetime.end.p0(i64 4, ptr nonnull %4) #28
  %41 = load ptr, ptr %8, align 8, !tbaa !836
  %.not5.i.i.i = icmp eq ptr %41, null
  br i1 %.not5.i.i.i, label %_ZNSt10_HashtableIN4cvc58internal12NodeTemplateILb1EEES3_SaIS3_ENSt8__detail9_IdentityESt8equal_toIS3_ESt4hashIS3_ENS5_18_Mod_range_hashingENS5_20_Default_ranged_hashENS5_20_Prime_rehash_policyENS5_17_Hashtable_traitsILb1ELb1ELb1EEEE5clearEv.exit.i, label %.lr.ph.i.i.i

.lr.ph.i.i.i:                                     ; preds = %_ZN4cvc58internal12NodeTemplateILb1EED2Ev.exit, %_ZNSt8__detail16_Hashtable_allocISaINS_10_Hash_nodeIN4cvc58internal12NodeTemplateILb1EEELb1EEEEE18_M_deallocate_nodeEPS6_.exit.i.i.i
  %.06.i.i.i = phi ptr [ %42, %_ZNSt8__detail16_Hashtable_allocISaINS_10_Hash_nodeIN4cvc58internal12NodeTemplateILb1EEELb1EEEEE18_M_deallocate_nodeEPS6_.exit.i.i.i ], [ %41, %_ZN4cvc58internal12NodeTemplateILb1EED2Ev.exit ]
  %42 = load ptr, ptr %.06.i.i.i, align 8, !tbaa !75
  %43 = getelementptr inbounds nuw i8, ptr %.06.i.i.i, i64 8
  %44 = load ptr, ptr %43, align 8, !tbaa !69
  %45 = load i64, ptr %44, align 8
  %46 = and i64 %45, 1152920405095219200
  %.not.i.i.i.i.i.i.i.i = icmp eq i64 %46, 1152920405095219200
  br i1 %.not.i.i.i.i.i.i.i.i, label %_ZNSt8__detail16_Hashtable_allocISaINS_10_Hash_nodeIN4cvc58internal12NodeTemplateILb1EEELb1EEEEE18_M_deallocate_nodeEPS6_.exit.i.i.i, label %47, !prof !71

47:                                               ; preds = %.lr.ph.i.i.i
  %48 = add i64 %45, 1152920405095219200
  %49 = and i64 %48, 1152920405095219200
  %50 = and i64 %45, -1152920405095219201
  %51 = or disjoint i64 %49, %50
  store i64 %51, ptr %44, align 8
  %52 = icmp eq i64 %49, 0
  br i1 %52, label %53, label %_ZNSt8__detail16_Hashtable_allocISaINS_10_Hash_nodeIN4cvc58internal12NodeTemplateILb1EEELb1EEEEE18_M_deallocate_nodeEPS6_.exit.i.i.i, !prof !71

53:                                               ; preds = %47
  invoke void @_ZN4cvc58internal4expr9NodeValue15markForDeletionEv(ptr noundef nonnull align 8 dereferenceable(24) %44)
          to label %_ZNSt8__detail16_Hashtable_allocISaINS_10_Hash_nodeIN4cvc58internal12NodeTemplateILb1EEELb1EEEEE18_M_deallocate_nodeEPS6_.exit.i.i.i unwind label %54

54:                                               ; preds = %53
  %55 = landingpad { ptr, i32 }
          catch ptr null
  %56 = extractvalue { ptr, i32 } %55, 0
  call void @__clang_call_terminate(ptr %56) #30
  unreachable

_ZNSt8__detail16_Hashtable_allocISaINS_10_Hash_nodeIN4cvc58internal12NodeTemplateILb1EEELb1EEEEE18_M_deallocate_nodeEPS6_.exit.i.i.i: ; preds = %53, %47, %.lr.ph.i.i.i
  call void @_ZdlPvm(ptr noundef nonnull %.06.i.i.i, i64 noundef 24) #29
  %.not.i.i.i = icmp eq ptr %42, null
  br i1 %.not.i.i.i, label %_ZNSt10_HashtableIN4cvc58internal12NodeTemplateILb1EEES3_SaIS3_ENSt8__detail9_IdentityESt8equal_toIS3_ESt4hashIS3_ENS5_18_Mod_range_hashingENS5_20_Default_ranged_hashENS5_20_Prime_rehash_policyENS5_17_Hashtable_traitsILb1ELb1ELb1EEEE5clearEv.exit.i, label %.lr.ph.i.i.i, !llvm.loop !837

_ZNSt10_HashtableIN4cvc58internal12NodeTemplateILb1EEES3_SaIS3_ENSt8__detail9_IdentityESt8equal_toIS3_ESt4hashIS3_ENS5_18_Mod_range_hashingENS5_20_Default_ranged_hashENS5_20_Prime_rehash_policyENS5_17_Hashtable_traitsILb1ELb1ELb1EEEE5clearEv.exit.i: ; preds = %_ZNSt8__detail16_Hashtable_allocISaINS_10_Hash_nodeIN4cvc58internal12NodeTemplateILb1EEELb1EEEEE18_M_deallocate_nodeEPS6_.exit.i.i.i, %_ZN4cvc58internal12NodeTemplateILb1EED2Ev.exit
  %57 = load ptr, ptr %3, align 8, !tbaa !828
  %58 = load i64, ptr %7, align 8, !tbaa !827
  %59 = shl i64 %58, 3
  call void @llvm.memset.p0.i64(ptr align 8 %57, i8 0, i64 %59, i1 false)
  call void @llvm.memset.p0.i64(ptr noundef nonnull align 8 dereferenceable(16) %8, i8 0, i64 16, i1 false)
  %60 = load ptr, ptr %3, align 8, !tbaa !828
  %61 = icmp eq ptr %60, %6
  br i1 %61, label %_ZNSt10_HashtableIN4cvc58internal12NodeTemplateILb1EEES3_SaIS3_ENSt8__detail9_IdentityESt8equal_toIS3_ESt4hashIS3_ENS5_18_Mod_range_hashingENS5_20_Default_ranged_hashENS5_20_Prime_rehash_policyENS5_17_Hashtable_traitsILb1ELb1ELb1EEEED2Ev.exit, label %62

62:                                               ; preds = %_ZNSt10_HashtableIN4cvc58internal12NodeTemplateILb1EEES3_SaIS3_ENSt8__detail9_IdentityESt8equal_toIS3_ESt4hashIS3_ENS5_18_Mod_range_hashingENS5_20_Default_ranged_hashENS5_20_Prime_rehash_policyENS5_17_Hashtable_traitsILb1ELb1ELb1EEEE5clearEv.exit.i
  %63 = load i64, ptr %7, align 8, !tbaa !827
  %64 = shl i64 %63, 3
  call void @_ZdlPvm(ptr noundef %60, i64 noundef %64) #29
  br label %_ZNSt10_HashtableIN4cvc58internal12NodeTemplateILb1EEES3_SaIS3_ENSt8__detail9_IdentityESt8equal_toIS3_ESt4hashIS3_ENS5_18_Mod_range_hashingENS5_20_Default_ranged_hashENS5_20_Prime_rehash_policyENS5_17_Hashtable_traitsILb1ELb1ELb1EEEED2Ev.exit

_ZNSt10_HashtableIN4cvc58internal12NodeTemplateILb1EEES3_SaIS3_ENSt8__detail9_IdentityESt8equal_toIS3_ESt4hashIS3_ENS5_18_Mod_range_hashingENS5_20_Default_ranged_hashENS5_20_Prime_rehash_policyENS5_17_Hashtable_traitsILb1ELb1ELb1EEEED2Ev.exit: ; preds = %_ZNSt10_HashtableIN4cvc58internal12NodeTemplateILb1EEES3_SaIS3_ENSt8__detail9_IdentityESt8equal_toIS3_ESt4hashIS3_ENS5_18_Mod_range_hashingENS5_20_Default_ranged_hashENS5_20_Prime_rehash_policyENS5_17_Hashtable_traitsILb1ELb1ELb1EEEE5clearEv.exit.i, %62
  call void @llvm.lifetime.end.p0(i64 56, ptr nonnull %3) #28
  ret i32 %40

65:                                               ; preds = %24
  %66 = landingpad { ptr, i32 }
          cleanup
  br label %69

67:                                               ; preds = %_ZN4cvc58internal12NodeTemplateILb1EEC2ERKNS1_ILb0EEE.exit
  %68 = landingpad { ptr, i32 }
          cleanup
  call void @_ZN4cvc58internal12NodeTemplateILb1EED2Ev(ptr noundef nonnull align 8 dereferenceable(8) %5) #28
  br label %69

69:                                               ; preds = %67, %65
  %.pn = phi { ptr, i32 } [ %68, %67 ], [ %66, %65 ]
  call void @llvm.lifetime.end.p0(i64 4, ptr nonnull %4) #28
  call void @_ZNSt10_HashtableIN4cvc58internal12NodeTemplateILb1EEES3_SaIS3_ENSt8__detail9_IdentityESt8equal_toIS3_ESt4hashIS3_ENS5_18_Mod_range_hashingENS5_20_Default_ranged_hashENS5_20_Prime_rehash_policyENS5_17_Hashtable_traitsILb1ELb1ELb1EEEED2Ev(ptr noundef nonnull align 8 dereferenceable(56) %3) #28
  call void @llvm.lifetime.end.p0(i64 56, ptr nonnull %3) #28
  resume { ptr, i32 } %.pn
}